target datalayout = "e-m:e-p270:32:32-p271:32:32-p272:64:64-i64:64-i128:128-f80:128-n8:16:32:64-S128"
target triple = "x86_64-pc-linux-gnu"

%struct.Nwk_Obj_t_ = type { ptr, ptr, ptr, %union.anon, i32, i32, i32, i32, float, float, float, i32, i32, i32, ptr }
%union.anon = type { ptr }

; Function Attrs: nounwind uwtable
define void @Nwk_ManMarkTfiCone_rec(ptr noundef %0) #0 {
  %2 = alloca ptr, align 8
  %3 = alloca ptr, align 8
  %4 = alloca i32, align 4
  %5 = alloca i32, align 4
  store ptr %0, ptr %2, align 8, !tbaa !3
  call void @llvm.lifetime.start.p0(i64 8, ptr %3) #9
  call void @llvm.lifetime.start.p0(i64 4, ptr %4) #9
  %6 = load ptr, ptr %2, align 8, !tbaa !3
  %7 = getelementptr inbounds nuw %struct.Nwk_Obj_t_, ptr %6, i32 0, i32 4
  %8 = load i32, ptr %7, align 8
  %9 = lshr i32 %8, 4
  %10 = and i32 %9, 1
  %11 = icmp ne i32 %10, 0
  br i1 %11, label %12, label %13

12:                                               ; preds = %1
  store i32 1, ptr %5, align 4
  br label %42

13:                                               ; preds = %1
  %14 = load ptr, ptr %2, align 8, !tbaa !3
  %15 = getelementptr inbounds nuw %struct.Nwk_Obj_t_, ptr %14, i32 0, i32 4
  %16 = load i32, ptr %15, align 8
  %17 = and i32 %16, -17
  %18 = or i32 %17, 16
  store i32 %18, ptr %15, align 8
  store i32 0, ptr %4, align 4, !tbaa !8
  br label %19

19:                                               ; preds = %38, %13
  %20 = load i32, ptr %4, align 4, !tbaa !8
  %21 = load ptr, ptr %2, align 8, !tbaa !3
  %22 = getelementptr inbounds nuw %struct.Nwk_Obj_t_, ptr %21, i32 0, i32 11
  %23 = load i32, ptr %22, align 4, !tbaa !10
  %24 = icmp slt i32 %20, %23
  br i1 %24, label %25, label %34

25:                                               ; preds = %19
  %26 = load ptr, ptr %2, align 8, !tbaa !3
  %27 = getelementptr inbounds nuw %struct.Nwk_Obj_t_, ptr %26, i32 0, i32 14
  %28 = load ptr, ptr %27, align 8, !tbaa !16
  %29 = load i32, ptr %4, align 4, !tbaa !8
  %30 = sext i32 %29 to i64
  %31 = getelementptr inbounds ptr, ptr %28, i64 %30
  %32 = load ptr, ptr %31, align 8, !tbaa !3
  store ptr %32, ptr %3, align 8, !tbaa !3
  %33 = icmp ne ptr %32, null
  br label %34

34:                                               ; preds = %25, %19
  %35 = phi i1 [ false, %19 ], [ %33, %25 ]
  br i1 %35, label %36, label %41

36:                                               ; preds = %34
  %37 = load ptr, ptr %3, align 8, !tbaa !3
  call void @Nwk_ManMarkTfiCone_rec(ptr noundef %37)
  br label %38

38:                                               ; preds = %36
  %39 = load i32, ptr %4, align 4, !tbaa !8
  %40 = add nsw i32 %39, 1
  store i32 %40, ptr %4, align 4, !tbaa !8
  br label %19, !llvm.loop !17

41:                                               ; preds = %34
  store i32 0, ptr %5, align 4
  br label %42

42:                                               ; preds = %41, %12
  call void @llvm.lifetime.end.p0(i64 4, ptr %4) #9
  call void @llvm.lifetime.end.p0(i64 8, ptr %3) #9
  %43 = load i32, ptr %5, align 4
  switch i32 %43, label %45 [
    i32 0, label %44
    i32 1, label %44
  ]

44:                                               ; preds = %42, %42
  ret void

45:                                               ; preds = %42
  unreachable
}